Microchip MPLAB XC8 Compiler V2.32

Linker command line:

-W-3 --edf=C:\Program Files\Microchip\xc8\v2.32\pic\dat\en_msgs.txt -cn \
  -h+dist/default/production\MAESTRO_MPLAB.production.sym \
  --cmf=dist/default/production\MAESTRO_MPLAB.production.cmf -z -Q16F887 \
  -oC:\Users\jocar\AppData\Local\Temp\xcAs8qk.5 --defsym=__MPLAB_BUILD=1 \
  -Mdist/default/production/MAESTRO_MPLAB.production.map -E1 \
  -ver=XC8 Compiler --acfsm=1493 -ASTACK=0110h-016Fh -pstack=STACK \
  -ACODE=00h-07FFhx4 -ASTRCODE=00h-01FFFh -ASTRING=00h-0FFhx32 \
  -ACONST=00h-0FFhx32 -AENTRY=00h-0FFhx32 -ACOMMON=070h-07Fh \
  -ABANK0=020h-06Fh -ABANK1=0A0h-0EFh -ABANK2=0110h-016Fh \
  -ABANK3=0190h-01EFh -ARAM=020h-06Fh,0A0h-0EFh,0110h-016Fh,0190h-01EFh \
  -AABS1=020h-07Fh,0A0h-0EFh,0110h-016Fh,0190h-01EFh -ASFR0=00h-01Fh \
  -ASFR1=080h-09Fh -ASFR2=0100h-010Fh -ASFR3=0180h-018Fh \
  -ACONFIG=02007h-02008h -DCONFIG=2 -AIDLOC=02000h-02003h -DIDLOC=2 \
  -AEEDATA=00h-0FFh/02100h -peeprom_data=EEDATA -DEEDATA=2 -DCODE=2 \
  -DSTRCODE=2 -DSTRING=2 -DCONST=2 -DENTRY=2 \
  -preset_vec=00h,intentry=04h,init,end_init -ppowerup=CODE -pcinit=CODE \
  -pfunctab=ENTRY -k C:\Users\jocar\AppData\Local\Temp\xcAs8qk.o \
  dist/default/production\MAESTRO_MPLAB.production.o 

Object code version is 3.11

Machine type is 16F887



                Name                               Link     Load   Length Selector   Space Scale
C:\Users\jocar\AppData\Local\Temp\xcAs8qk.o
                end_init                              C        C        3        8       0
                reset_vec                             0        0        3        0       0
                config                             2007     2007        2        0       4
dist/default/production\MAESTRO_MPLAB.production.o
                cinit                                 F        F       1C        8       0
                intentry                              4        4        8        8       0
                config                             2007     2007        2        0       4
                text23                              7E4      7E4       11      E64       0
                text22                              6E4      6E4        E        8       0
                text21                              662      662       43        8       0
                text20                              FF4      FF4        C     1FE8       0
                text19                              6F2      6F2        D        8       0
                text18                              762      762       28      E64       0
                text17                              441      441       69        8       0
                text16                              577      577       5B        8       0
                text15                              5D2      5D2       4D        8       0
                text14                              294      294       B0        8       0
                text13                              78A      78A       26      E64       0
                text12                              512      512       65        8       0
                text11                              FEB      FEB        9     1FD6       0
                text10                              7F5      7F5        B      E64       0
                text9                               7CA      7CA       1A      E64       0
                text8                               344      344       8A        8       0
                text7                               4AA      4AA       68        8       0
                text6                               1E3      1E3       B1        8       0
                text5                               7B0      7B0       1A      E64       0
                text4                               732      732       30      E64       0
                text3                               61F      61F       43        8       0
                text2                               3CE      3CE       73        8       0
                text1                               6A5      6A5       3F        8       0
                maintext                             2B       2B      1B8        8       0
                cstackBANK0                          39       39       18       20       1
                cstackCOMMON                         70       70        8       70       1
                clrtext                             FE3      FE3        8     1FC6       0
                dataBANK0                            51       51        2       20       1
                bssBANK0                             20       20       19       20       1
                bssCOMMON                            78       78        3       70       1
                strings                             700      700       32      E00       0
                idataBANK0                          FE1      FE1        2     1FC2       0

TOTAL           Name                               Link     Load   Length     Space
        CLASS   STACK          

        CLASS   CODE           
                end_init                              C        C        3         0
                cinit                                 F        F       1C         0
                intentry                              4        4        8         0
                reset_vec                             0        0        3         0
                text23                              7E4      7E4       11         0
                text22                              6E4      6E4        E         0
                text21                              662      662       43         0
                text20                              FF4      FF4        C         0
                text19                              6F2      6F2        D         0
                text18                              762      762       28         0
                text17                              441      441       69         0
                text16                              577      577       5B         0
                text15                              5D2      5D2       4D         0
                text14                              294      294       B0         0
                text13                              78A      78A       26         0
                text12                              512      512       65         0
                text11                              FEB      FEB        9         0
                text10                              7F5      7F5        B         0
                text9                               7CA      7CA       1A         0
                text8                               344      344       8A         0
                text7                               4AA      4AA       68         0
                text6                               1E3      1E3       B1         0
                text5                               7B0      7B0       1A         0
                text4                               732      732       30         0
                text3                               61F      61F       43         0
                text2                               3CE      3CE       73         0
                text1                               6A5      6A5       3F         0
                maintext                             2B       2B      1B8         0
                clrtext                             FE3      FE3        8         0
                idataBANK0                          FE1      FE1        2         0

        CLASS   STRCODE        

        CLASS   STRING         
                strings                             700      700       32         0

        CLASS   CONST          

        CLASS   ENTRY          

        CLASS   COMMON         
                cstackCOMMON                         70       70        8         1
                bssCOMMON                            78       78        3         1

        CLASS   BANK0          
                cstackBANK0                          39       39       18         1
                dataBANK0                            51       51        2         1
                bssBANK0                             20       20       19         1

        CLASS   BANK1          

        CLASS   BANK2          

        CLASS   BANK3          

        CLASS   RAM            

        CLASS   ABS1           
                abs_s1                               7E       7E        2         1

        CLASS   SFR0           

        CLASS   SFR1           

        CLASS   SFR2           

        CLASS   SFR3           

        CLASS   CONFIG         
                config                             2007     2007        2         4

        CLASS   IDLOC          

        CLASS   EEDATA         



SEGMENTS        Name                           Load    Length   Top    Selector   Space  Class     Delta

                reset_vec                      000000  000003  000003         0       0  CODE        2
                intentry                       000004  0006FB  0006FF         8       0  CODE        2
                bssBANK0                       000020  000033  000053        20       1  BANK0       1
                cstackCOMMON                   000070  00000B  00007B        70       1  COMMON      1
                strings                        000700  000032  000732       E00       0  STRING      2
                text4                          000732  0000CE  000800       E64       0  CODE        2
                idataBANK0                     000FE1  000002  000FE3      1FC2       0  CODE        2
                clrtext                        000FE3  000008  000FEB      1FC6       0  CODE        2
                text11                         000FEB  000009  000FF4      1FD6       0  CODE        2
                text20                         000FF4  00000C  001000      1FE8       0  CODE        2


UNUSED ADDRESS RANGES

        Name                Unused          Largest block    Delta
        BANK0            0053-006F             1D           1
        BANK1            00A0-00EF             50           1
        BANK2            0110-016F             60           1
        BANK3            0190-01EF             60           1
        CODE             0003-0003              1           2
                         06FF-06FF              1
                         0800-0FE0            7E1
                         1000-1FFF            800
        COMMON           007B-007D              3           1
        CONST            0003-0003              1           2
                         06FF-06FF              1
                         0800-0FE0            100
                         1000-1FFF            100
        EEDATA           2100-21FF            100           2
        ENTRY            0003-0003              1           2
                         06FF-06FF              1
                         0800-0FE0            100
                         1000-1FFF            100
        IDLOC            2000-2003              4           2
        RAM              0053-006F             1D           1
                         00A0-00EF             50
                         0110-016F             60
                         0190-01EF             60
        SFR0             0000-001F             20           1
        SFR1             0080-009F             20           1
        SFR2             0100-010F             10           1
        SFR3             0180-018F             10           1
        STACK            0110-016F             60           1
        STRCODE          0003-0003              1           2
                         06FF-06FF              1
                         0800-0FE0            7E1
                         1000-1FFF           1000
        STRING           0003-0003              1           2
                         06FF-06FF              1
                         0800-0FE0            100
                         1000-1FFF            100

                                  Symbol Table

?___awdiv                      cstackCOMMON 0073
?___awmod                      cstackCOMMON 0073
?___lldiv                      cstackBANK0  0039
Config_USART@Freq              cstackCOMMON 0075
Config_USART@baud_rate         cstackCOMMON 0073
Escribir_caracterLCD@a         cstackCOMMON 0075
Escribir_comandoLCD@Comando    cstackCOMMON 0074
Escribir_stringLCD@d           cstackCOMMON 0077
Escribir_stringLCD@i           cstackCOMMON 0076
I2CMasterRead@ACK              cstackCOMMON 0074
I2CMasterRead@Datos            cstackCOMMON 0075
I2CMasterWrite@Datos           cstackCOMMON 0073
I2C_Master_Start@Modo_Inicio   cstackCOMMON 0073
InitMSSP@Dato                  cstackBANK0  0046
InitMSSP@Modo                  cstackBANK0  004A
_ANSEL                         (abs)        0188
_ANSELH                        (abs)        0189
_Ax1                           bssBANK0     0038
_Ax2                           bssBANK0     0037
_Ay1                           bssBANK0     0036
_Ay2                           bssBANK0     0035
_Az1                           bssBANK0     0034
_Az2                           bssBANK0     0033
_BAUDCTLbits                   (abs)        0187
_CKP                           (abs)        00A4
_Config_USART                  text14       0294
_Escribir_caracterLCD          text20       0FF4
_Escribir_comandoLCD           text21       0662
_Escribir_stringLCD            text13       078A
_GIE                           (abs)        005F
_Giro_digx                     bssCOMMON    007A
_Giro_digy                     bssCOMMON    0079
_Gx1                           bssCOMMON    0078
_Gx2                           bssBANK0     0030
_Gy1                           bssBANK0     002F
_Gy2                           bssBANK0     002E
_Gz1                           bssBANK0     002D
_Gz2                           bssBANK0     002C
_I2CMasterCheck                text19       06F2
_I2CMasterRead                 text18       0762
_I2CMasterStop                 text11       0FEB
_I2CMasterWrite                text10       07F5
_I2C_Master_Start              text9        07CA
_INTCONbits                    (abs)        000B
_Iniciar_LCD                   text12       0512
_InitMPU6050                   text8        0344
_InitMSSP                      text6        01E3
_Limpiar_pantallaLCD           text5        07B0
_OSCCONbits                    (abs)        008F
_PEIE                          (abs)        005E
_PIE1bits                      (abs)        008C
_PIR1bits                      (abs)        000C
_PORTA                         (abs)        0005
_PORTB                         (abs)        0006
_PORTBbits                     (abs)        0006
_PORTD                         (abs)        0008
_PORTDbits                     (abs)        0008
_RCREG                         (abs)        001A
_RCSTAbits                     (abs)        0018
_SPBRG                         (abs)        0099
_SPBRGH                        (abs)        009A
_SSPADD                        (abs)        0093
_SSPBUF                        (abs)        0013
_SSPCON                        (abs)        0014
_SSPCON2                       (abs)        0091
_SSPCON2bits                   (abs)        0091
_SSPCONbits                    (abs)        0014
_SSPIE                         (abs)        0463
_SSPIF                         (abs)        0063
_SSPSTAT                       (abs)        0094
_SSPSTATbits                   (abs)        0094
_T1                            bssBANK0     0032
_T2                            bssBANK0     0031
_TRISA                         (abs)        0085
_TRISAbits                     (abs)        0085
_TRISB                         (abs)        0086
_TRISC3                        (abs)        043B
_TRISC4                        (abs)        043C
_TRISCbits                     (abs)        0087
_TRISD                         (abs)        0088
_TXIF                          (abs)        0064
_TXREG                         (abs)        0019
_TXSTAbits                     (abs)        0098
_UA                            (abs)        04A1
__Habs1                        abs1         0000
__Hbank0                       bank0        0000
__Hbank1                       bank1        0000
__Hbank2                       bank2        0000
__Hbank3                       bank3        0000
__HbssBANK0                    bssBANK0     0000
__HbssCOMMON                   bssCOMMON    0000
__Hcinit                       cinit        002B
__Hclrtext                     clrtext      0000
__Hcode                        code         0000
__Hcommon                      common       0000
__Hconfig                      config       2009
__HcstackBANK0                 cstackBANK0  0000
__HcstackCOMMON                cstackCOMMON 0000
__HdataBANK0                   dataBANK0    0000
__Heeprom_data                 eeprom_data  0000
__Hend_init                    end_init     000F
__Hfunctab                     functab      0000
__HidataBANK0                  idataBANK0   0000
__Hinit                        init         000C
__Hintentry                    intentry     000C
__Hmaintext                    maintext     0000
__Hpowerup                     powerup      0000
__Hram                         ram          0000
__Hreset_vec                   reset_vec    0003
__Hsfr0                        sfr0         0000
__Hsfr1                        sfr1         0000
__Hsfr2                        sfr2         0000
__Hsfr3                        sfr3         0000
__Hspace_0                     (abs)        1000
__Hspace_1                     (abs)        007B
__Hspace_2                     (abs)        0000
__Hspace_3                     (abs)        0000
__Hspace_4                     (abs)        4010
__Hstack                       stack        0000
__Hstrings                     strings      0000
__Htext                        text         0000
__Labs1                        abs1         0000
__Lbank0                       bank0        0000
__Lbank1                       bank1        0000
__Lbank2                       bank2        0000
__Lbank3                       bank3        0000
__LbssBANK0                    bssBANK0     0000
__LbssCOMMON                   bssCOMMON    0000
__Lcinit                       cinit        000F
__Lclrtext                     clrtext      0000
__Lcode                        code         0000
__Lcommon                      common       0000
__Lconfig                      config       0000
__LcstackBANK0                 cstackBANK0  0000
__LcstackCOMMON                cstackCOMMON 0000
__LdataBANK0                   dataBANK0    0000
__Leeprom_data                 eeprom_data  0000
__Lend_init                    end_init     000C
__Lfunctab                     functab      0000
__LidataBANK0                  idataBANK0   0000
__Linit                        init         000C
__Lintentry                    intentry     0004
__Lmaintext                    maintext     0000
__Lpowerup                     powerup      0000
__Lram                         ram          0000
__Lreset_vec                   reset_vec    0000
__Lsfr0                        sfr0         0000
__Lsfr1                        sfr1         0000
__Lsfr2                        sfr2         0000
__Lsfr3                        sfr3         0000
__Lspace_0                     (abs)        0000
__Lspace_1                     (abs)        0000
__Lspace_2                     (abs)        0000
__Lspace_3                     (abs)        0000
__Lspace_4                     (abs)        0000
__Lstack                       stack        0000
__Lstrings                     strings      0000
__Ltext                        text         0000
__S0                           (abs)        1000
__S1                           (abs)        007B
__S2                           (abs)        0000
__S3                           (abs)        0000
___awdiv                       text17       0441
___awdiv@counter               cstackBANK0  0039
___awdiv@dividend              cstackCOMMON 0075
___awdiv@divisor               cstackCOMMON 0073
___awdiv@quotient              cstackBANK0  003B
___awdiv@sign                  cstackBANK0  003A
___awmod                       text16       0577
___awmod@counter               cstackBANK0  0039
___awmod@dividend              cstackCOMMON 0075
___awmod@divisor               cstackCOMMON 0073
___awmod@sign                  cstackBANK0  003A
___int_sp                      stack        0000
___latbits                     (abs)        0002
___lldiv                       text7        04AA
___lldiv@counter               cstackBANK0  0045
___lldiv@dividend              cstackBANK0  003D
___lldiv@divisor               cstackBANK0  0039
___lldiv@quotient              cstackBANK0  0041
___sp                          stack        0000
___stackhi                     (abs)        0000
___stacklo                     (abs)        0000
__end_of_Config_USART          text14       0344
__end_of_Escribir_caracterLCD  text20       1000
__end_of_Escribir_comandoLCD   text21       06A5
__end_of_Escribir_stringLCD    text13       07B0
__end_of_I2CMasterCheck        text19       06FF
__end_of_I2CMasterRead         text18       078A
__end_of_I2CMasterStop         text11       0FF4
__end_of_I2CMasterWrite        text10       0800
__end_of_I2C_Master_Start      text9        07E4
__end_of_Iniciar_LCD           text12       0577
__end_of_InitMPU6050           text8        03CE
__end_of_InitMSSP              text6        0294
__end_of_Limpiar_pantallaLCD   text5        07CA
__end_of___awdiv               text17       04AA
__end_of___awmod               text16       05D2
__end_of___lldiv               text7        0512
__end_of__initialization       cinit        0027
__end_of__stringtab            strings      0706
__end_of_divisor_dec           text15       061F
__end_of_initOsc               text4        0762
__end_of_isr                   text23       07F5
__end_of_main                  maintext     01E3
__end_of_prender_ELCD          text22       06F2
__end_of_set_cursor            text3        0662
__end_of_setup                 text2        0441
__end_of_tabla_numASCII        text1        06E4
__initialization               cinit        000F
__pbssBANK0                    bssBANK0     0020
__pbssCOMMON                   bssCOMMON    0078
__pcstackBANK0                 cstackBANK0  0039
__pcstackCOMMON                cstackCOMMON 0070
__pdataBANK0                   dataBANK0    0051
__pidataBANK0                  idataBANK0   0FE1
__pintentry                    intentry     0004
__pmaintext                    maintext     002B
__pstrings                     strings      0700
__ptext1                       text1        06A5
__ptext10                      text10       07F5
__ptext11                      text11       0FEB
__ptext12                      text12       0512
__ptext13                      text13       078A
__ptext14                      text14       0294
__ptext15                      text15       05D2
__ptext16                      text16       0577
__ptext17                      text17       0441
__ptext18                      text18       0762
__ptext19                      text19       06F2
__ptext2                       text2        03CE
__ptext20                      text20       0FF4
__ptext21                      text21       0662
__ptext22                      text22       06E4
__ptext23                      text23       07E4
__ptext3                       text3        061F
__ptext4                       text4        0732
__ptext5                       text5        07B0
__ptext6                       text6        01E3
__ptext7                       text7        04AA
__ptext8                       text8        0344
__ptext9                       text9        07CA
__size_of_Config_USART         (abs)        0000
__size_of_Escribir_caracterLCD (abs)        0000
__size_of_Escribir_comandoLCD  (abs)        0000
__size_of_Escribir_stringLCD   (abs)        0000
__size_of_I2CMasterCheck       (abs)        0000
__size_of_I2CMasterRead        (abs)        0000
__size_of_I2CMasterStop        (abs)        0000
__size_of_I2CMasterWrite       (abs)        0000
__size_of_I2C_Master_Start     (abs)        0000
__size_of_Iniciar_LCD          (abs)        0000
__size_of_InitMPU6050          (abs)        0000
__size_of_InitMSSP             (abs)        0000
__size_of_Limpiar_pantallaLCD  (abs)        0000
__size_of___awdiv              (abs)        0000
__size_of___awmod              (abs)        0000
__size_of___lldiv              (abs)        0000
__size_of_divisor_dec          (abs)        0000
__size_of_initOsc              (abs)        0000
__size_of_isr                  (abs)        0000
__size_of_main                 (abs)        0000
__size_of_prender_ELCD         (abs)        0000
__size_of_set_cursor           (abs)        0000
__size_of_setup                (abs)        0000
__size_of_tabla_numASCII       (abs)        0000
__stringbase                   strings      0705
__stringtab                    strings      0700
_cen_x                         bssBANK0     0029
_cen_y                         bssBANK0     0026
_dato                          bssBANK0     0021
_dec_x                         bssBANK0     002A
_dec_y                         bssBANK0     0027
_divisor_dec                   text15       05D2
_estado_sem                    bssBANK0     0020
_initOsc                       text4        0732
_isr                           text23       07E4
_main                          maintext     002B
_prender_ELCD                  text22       06E4
_set_cursor                    text3        061F
_setup                         text2        03CE
_tabla_numASCII                text1        06A5
_uni_x                         bssBANK0     002B
_uni_y                         bssBANK0     0028
btemp                          (abs)        007E
clear_ram0                     clrtext      0FE3
divisor_dec@b                  cstackBANK0  003D
divisor_dec@dig1               cstackBANK0  003F
divisor_dec@n                  cstackBANK0  0042
end_of_initialization          cinit        0027
initOsc@Valor                  cstackCOMMON 0073
interrupt_function             intentry     0004
intlevel0                      functab      0000
intlevel1                      functab      0000
intlevel2                      functab      0000
intlevel3                      functab      0000
intlevel4                      functab      0000
intlevel5                      functab      0000
reset_vec                      reset_vec    0000
saved_w                        (abs)        007E
set_cursor@linea               cstackBANK0  0039
set_cursor@posicion            cstackCOMMON 0075
start                          init         000C
start_initialization           cinit        000F
tabla_numASCII@a               cstackCOMMON 0075
wtemp0                         (abs)        007E


MODULE INFORMATION

Module		Function		Class		Link	Load	Size
MPU.c
		_InitMPU6050   		CODE           	0344	0000	138

MPU.c estimated size: 138

UART.c
		_Config_USART  		CODE           	0294	0000	176

UART.c estimated size: 176

I2C.c
		_InitMSSP      		CODE           	01E3	0000	177
		_I2CMasterRead 		CODE           	0762	0000	40
		_I2CMasterStop 		CODE           	0FEB	0000	9
		_I2CMasterCheck		CODE           	06F2	0000	13
		_I2CMasterWrite		CODE           	07F5	0000	11
		_I2C_Master_Start		CODE           	07CA	0000	26

I2C.c estimated size: 276

Oscilador.c
		_initOsc       		CODE           	0732	0000	48

Oscilador.c estimated size: 48

C:\Program Files\Microchip\xc8\v2.32\pic\sources\c90\common\awmod.c
		___awmod       		CODE           	0577	0000	91

C:\Program Files\Microchip\xc8\v2.32\pic\sources\c90\common\awmod.c estimated size: 91

shared
		__stringtab    		STRING         	0700	0000	6
		__initialization		CODE           	000F	0000	24

shared estimated size: 30

Maestro I2C.c
		_tabla_numASCII		CODE           	06A5	0000	63
		_main          		CODE           	002B	0000	440
		_isr           		CODE           	07E4	0000	17
		_setup         		CODE           	03CE	0000	115
		_divisor_dec   		CODE           	05D2	0000	77

Maestro I2C.c estimated size: 712

C:\Program Files\Microchip\xc8\v2.32\pic\sources\c90\common\awdiv.c
		___awdiv       		CODE           	0441	0000	105

C:\Program Files\Microchip\xc8\v2.32\pic\sources\c90\common\awdiv.c estimated size: 105

LCD.c
		_Escribir_caracterLCD		CODE           	0FF4	0000	12
		_Iniciar_LCD   		CODE           	0512	0000	101
		_set_cursor    		CODE           	061F	0000	67
		_Escribir_stringLCD		CODE           	078A	0000	38
		_Limpiar_pantallaLCD		CODE           	07B0	0000	26
		_Escribir_comandoLCD		CODE           	0662	0000	67
		_prender_ELCD  		CODE           	06E4	0000	14

LCD.c estimated size: 325

C:\Program Files\Microchip\xc8\v2.32\pic\sources\c90\common\__lldiv.c
		___lldiv       		CODE           	04AA	0000	104

C:\Program Files\Microchip\xc8\v2.32\pic\sources\c90\common\__lldiv.c estimated size: 104

